; Function Attrs: mustprogress uwtable
define void @_ZN32pxrInternal_v0_24__pxrReserved__25UsdImagingDrawModeAdapter9MarkDirtyERKNS_7UsdPrimERKNS_7SdfPathEjPNS_20UsdImagingIndexProxyE(ptr nonnull readnone align 8 captures(none) %0, ptr nonnull readnone align 8 captures(none) %1, ptr noundef nonnull align 4 dereferenceable(8) %2, i32 noundef %3, ptr noundef %4) unnamed_addr #0 align 2 {
  %6 = tail call noundef zeroext i1 @_ZNK32pxrInternal_v0_24__pxrReserved__25UsdImagingDrawModeAdapter15_IsMaterialPathERKNS_7SdfPathE(ptr nonnull align 8 poison, ptr noundef nonnull align 4 dereferenceable(8) %2)
  br i1 %6, label %7, label %8

7:                                                ; preds = %5
  tail call void @_ZN32pxrInternal_v0_24__pxrReserved__20UsdImagingIndexProxy14MarkSprimDirtyERKNS_7SdfPathEj(ptr noundef nonnull align 8 dereferenceable(184) %4, ptr noundef nonnull align 4 dereferenceable(8) %2, i32 noundef %3)
  br label %11

8:                                                ; preds = %5
  tail call void @_ZN32pxrInternal_v0_24__pxrReserved__20UsdImagingIndexProxy14MarkRprimDirtyERKNS_7SdfPathEj(ptr noundef nonnull align 8 dereferenceable(184) %4, ptr noundef nonnull align 4 dereferenceable(8) %2, i32 noundef %3)
  %9 = and i32 %3, 33128
  %.not = icmp eq i32 %9, 0
  br i1 %.not, label %11, label %10

10:                                               ; preds = %8
  tail call void @_ZN32pxrInternal_v0_24__pxrReserved__20UsdImagingIndexProxy20RequestUpdateForTimeERKNS_7SdfPathE(ptr noundef nonnull align 8 dereferenceable(184) %4, ptr noundef nonnull align 4 dereferenceable(8) %2)
  br label %11

11:                                               ; preds = %8, %10, %7
  ret void
}